target datalayout = "e-m:e-p270:32:32-p271:32:32-p272:64:64-i64:64-i128:128-f80:128-n8:16:32:64-S128"
target triple = "x86_64-pc-linux-gnu"

; Function Attrs: inlinehint nounwind willreturn memory(none) uwtable
define internal i32 @av_isspace(i32 noundef %0) #15 {
  %2 = alloca i32, align 4
  store i32 %0, ptr %2, align 4, !tbaa !39
  %3 = load i32, ptr %2, align 4, !tbaa !39
  %4 = icmp eq i32 %3, 32
  br i1 %4, label %20, label %5

5:                                                ; preds = %1
  %6 = load i32, ptr %2, align 4, !tbaa !39
  %7 = icmp eq i32 %6, 12
  br i1 %7, label %20, label %8

8:                                                ; preds = %5
  %9 = load i32, ptr %2, align 4, !tbaa !39
  %10 = icmp eq i32 %9, 10
  br i1 %10, label %20, label %11

11:                                               ; preds = %8
  %12 = load i32, ptr %2, align 4, !tbaa !39
  %13 = icmp eq i32 %12, 13
  br i1 %13, label %20, label %14

14:                                               ; preds = %11
  %15 = load i32, ptr %2, align 4, !tbaa !39
  %16 = icmp eq i32 %15, 9
  br i1 %16, label %20, label %17

17:                                               ; preds = %14
  %18 = load i32, ptr %2, align 4, !tbaa !39
  %19 = icmp eq i32 %18, 11
  br label %20

20:                                               ; preds = %17, %14, %11, %8, %5, %1
  %21 = phi i1 [ true, %14 ], [ true, %11 ], [ true, %8 ], [ true, %5 ], [ true, %1 ], [ %19, %17 ]
  %22 = zext i1 %21 to i32
  ret i32 %22
}

; Function Attrs: nounwind uwtable
define internal ptr @fget_next_word(ptr noundef %0, i32 noundef %1, ptr noundef %2) #1 {
  %4 = alloca ptr, align 8
  %5 = alloca ptr, align 8
  %6 = alloca i32, align 4
  %7 = alloca ptr, align 8
  %8 = alloca i32, align 4
  %9 = alloca ptr, align 8
  %10 = alloca i32, align 4
  store ptr %0, ptr %5, align 8, !tbaa !40
  store i32 %1, ptr %6, align 4, !tbaa !39
  store ptr %2, ptr %7, align 8, !tbaa !37
  call void @llvm.lifetime.start.p0(i64 4, ptr %8) #16
  call void @llvm.lifetime.start.p0(i64 8, ptr %9) #16
  %11 = load ptr, ptr %5, align 8, !tbaa !40
  store ptr %11, ptr %9, align 8, !tbaa !40
  %12 = load i32, ptr %6, align 4, !tbaa !39
  %13 = add nsw i32 %12, -1
  store i32 %13, ptr %6, align 4, !tbaa !39
  br label %14

14:                                               ; preds = %22, %3
  %15 = load ptr, ptr %7, align 8, !tbaa !37
  %16 = call i32 @fgetc(ptr noundef %15)
  store i32 %16, ptr %8, align 4, !tbaa !39
  %17 = icmp ne i32 %16, -1
  br i1 %17, label %18, label %30

18:                                               ; preds = %14
  %19 = load i32, ptr %8, align 4, !tbaa !39
  %20 = call i32 @av_isspace(i32 noundef %19) #17
  %21 = icmp ne i32 %20, 0
  br i1 %21, label %22, label %23

22:                                               ; preds = %18
  br label %14, !llvm.loop !249

23:                                               ; preds = %18
  %24 = load i32, ptr %8, align 4, !tbaa !39
  %25 = trunc i32 %24 to i8
  %26 = load ptr, ptr %9, align 8, !tbaa !40
  %27 = getelementptr inbounds nuw i8, ptr %26, i32 1
  store ptr %27, ptr %9, align 8, !tbaa !40
  store i8 %25, ptr %26, align 1, !tbaa !93
  %28 = load i32, ptr %6, align 4, !tbaa !39
  %29 = add nsw i32 %28, -1
  store i32 %29, ptr %6, align 4, !tbaa !39
  br label %30

30:                                               ; preds = %23, %14
  br label %31

31:                                               ; preds = %49, %30
  %32 = load i32, ptr %6, align 4, !tbaa !39
  %33 = icmp sgt i32 %32, 0
  br i1 %33, label %34, label %52

34:                                               ; preds = %31
  %35 = load ptr, ptr %7, align 8, !tbaa !37
  %36 = call i32 @fgetc(ptr noundef %35)
  store i32 %36, ptr %8, align 4, !tbaa !39
  %37 = icmp eq i32 %36, -1
  br i1 %37, label %38, label %39

38:                                               ; preds = %34
  br label %52

39:                                               ; preds = %34
  %40 = load i32, ptr %8, align 4, !tbaa !39
  %41 = call i32 @av_isspace(i32 noundef %40) #17
  %42 = icmp ne i32 %41, 0
  br i1 %42, label %43, label %44

43:                                               ; preds = %39
  br label %52

44:                                               ; preds = %39
  %45 = load i32, ptr %8, align 4, !tbaa !39
  %46 = trunc i32 %45 to i8
  %47 = load ptr, ptr %9, align 8, !tbaa !40
  %48 = getelementptr inbounds nuw i8, ptr %47, i32 1
  store ptr %48, ptr %9, align 8, !tbaa !40
  store i8 %46, ptr %47, align 1, !tbaa !93
  br label %49

49:                                               ; preds = %44
  %50 = load i32, ptr %6, align 4, !tbaa !39
  %51 = add nsw i32 %50, -1
  store i32 %51, ptr %6, align 4, !tbaa !39
  br label %31, !llvm.loop !250

52:                                               ; preds = %43, %38, %31
  %53 = load ptr, ptr %9, align 8, !tbaa !40
  store i8 0, ptr %53, align 1, !tbaa !93
  %54 = load ptr, ptr %9, align 8, !tbaa !40
  %55 = load ptr, ptr %5, align 8, !tbaa !40
  %56 = icmp eq ptr %54, %55
  br i1 %56, label %57, label %58

57:                                               ; preds = %52
  store ptr null, ptr %4, align 8
  store i32 1, ptr %10, align 4
  br label %60

58:                                               ; preds = %52
  %59 = load ptr, ptr %9, align 8, !tbaa !40
  store ptr %59, ptr %4, align 8
  store i32 1, ptr %10, align 4
  br label %60

60:                                               ; preds = %58, %57
  call void @llvm.lifetime.end.p0(i64 8, ptr %9) #16
  call void @llvm.lifetime.end.p0(i64 4, ptr %8) #16
  %61 = load ptr, ptr %4, align 8
  ret ptr %61
}