; Function Attrs: nofree nounwind uwtable
define internal fastcc noundef ptr @fget_next_word(ptr noundef nonnull writeonly captures(address, ret: address, provenance) %0, ptr noundef nonnull captures(none) %1) unnamed_addr #16 {
  br label %av_isspace.exit

av_isspace.exit:                                  ; preds = %av_isspace.exit.backedge, %2
  %3 = tail call i32 @fgetc(ptr noundef nonnull %1)
  switch i32 %3, label %.critedge [
    i32 -1, label %.loopexit.preheader
    i32 32, label %av_isspace.exit.backedge
    i32 13, label %av_isspace.exit.backedge
    i32 12, label %av_isspace.exit.backedge
    i32 10, label %av_isspace.exit.backedge
    i32 9, label %av_isspace.exit.backedge
    i32 11, label %av_isspace.exit.backedge
  ]

av_isspace.exit.backedge:                         ; preds = %av_isspace.exit, %av_isspace.exit, %av_isspace.exit, %av_isspace.exit, %av_isspace.exit, %av_isspace.exit
  br label %av_isspace.exit, !llvm.loop !243

.critedge:                                        ; preds = %av_isspace.exit
  %4 = trunc i32 %3 to i8
  %5 = getelementptr inbounds nuw i8, ptr %0, i64 1
  store i8 %4, ptr %0, align 1, !tbaa !47
  br label %.loopexit.preheader

.loopexit.preheader:                              ; preds = %av_isspace.exit, %.critedge
  %.128.ph = phi ptr [ %5, %.critedge ], [ %0, %av_isspace.exit ]
  %.11927.ph = phi i32 [ 510, %.critedge ], [ 511, %av_isspace.exit ]
  br label %.loopexit

.loopexit:                                        ; preds = %.loopexit.preheader, %7
  %.128 = phi ptr [ %9, %7 ], [ %.128.ph, %.loopexit.preheader ]
  %.11927 = phi i32 [ %10, %7 ], [ %.11927.ph, %.loopexit.preheader ]
  %6 = tail call i32 @fgetc(ptr noundef nonnull %1)
  switch i32 %6, label %7 [
    i32 -1, label %av_isspace.exit24.thread
    i32 32, label %av_isspace.exit24.thread
    i32 13, label %av_isspace.exit24.thread
    i32 12, label %av_isspace.exit24.thread
    i32 10, label %av_isspace.exit24.thread
    i32 9, label %av_isspace.exit24.thread
    i32 11, label %av_isspace.exit24.thread
  ]

7:                                                ; preds = %.loopexit
  %8 = trunc i32 %6 to i8
  %9 = getelementptr inbounds nuw i8, ptr %.128, i64 1
  store i8 %8, ptr %.128, align 1, !tbaa !47
  %10 = add nsw i32 %.11927, -1
  %11 = icmp samesign ugt i32 %.11927, 1
  br i1 %11, label %.loopexit, label %av_isspace.exit24.thread, !llvm.loop !244

av_isspace.exit24.thread:                         ; preds = %.loopexit, %.loopexit, %.loopexit, %.loopexit, %.loopexit, %.loopexit, %.loopexit, %7
  %.1.lcssa = phi ptr [ %.128, %.loopexit ], [ %.128, %.loopexit ], [ %.128, %.loopexit ], [ %.128, %.loopexit ], [ %.128, %.loopexit ], [ %.128, %.loopexit ], [ %.128, %.loopexit ], [ %9, %7 ]
  store i8 0, ptr %.1.lcssa, align 1, !tbaa !47
  %12 = icmp eq ptr %.1.lcssa, %0
  %..1 = select i1 %12, ptr null, ptr %.1.lcssa
  ret ptr %..1
}